target datalayout = "e-m:e-p270:32:32-p271:32:32-p272:64:64-i64:64-i128:128-f80:128-n8:16:32:64-S128"
target triple = "x86_64-pc-linux-gnu"

%struct.XPoint = type { i16, i16 }
%struct.XDrawHandlerData = type { i64, ptr, ptr, [256 x %struct.XPoint], i32, i32 }
%struct._DrawHandler = type { ptr, ptr, ptr, i32, i32, i32, i32, float, float, float, float, ptr }

; Function Attrs: nounwind uwtable
define internal void @storeLine(ptr noundef %0, i32 noundef %1, i32 noundef %2, i32 noundef %3, i32 noundef %4) #0 {
  %6 = alloca ptr, align 8
  %7 = alloca i32, align 4
  %8 = alloca i32, align 4
  %9 = alloca i32, align 4
  %10 = alloca i32, align 4
  %11 = alloca ptr, align 8
  %12 = alloca ptr, align 8
  %13 = alloca i32, align 4
  %14 = alloca i32, align 4
  %15 = alloca ptr, align 8
  %16 = alloca i32, align 4
  %17 = alloca i32, align 4
  store ptr %0, ptr %6, align 8
  store i32 %1, ptr %7, align 4
  store i32 %2, ptr %8, align 4
  store i32 %3, ptr %9, align 4
  store i32 %4, ptr %10, align 4
  %18 = load ptr, ptr %6, align 8
  %19 = getelementptr inbounds %struct._DrawHandler, ptr %18, i32 0, i32 11
  %20 = load ptr, ptr %19, align 8
  store ptr %20, ptr %11, align 8
  br label %21

21:                                               ; preds = %5
  %22 = load ptr, ptr %11, align 8
  %23 = getelementptr inbounds %struct.XDrawHandlerData, ptr %22, i32 0, i32 2
  %24 = load ptr, ptr %23, align 8
  store ptr %24, ptr %12, align 8
  %25 = load ptr, ptr %11, align 8
  %26 = getelementptr inbounds %struct.XDrawHandlerData, ptr %25, i32 0, i32 4
  %27 = load i32, ptr %26, align 8
  store i32 %27, ptr %13, align 4
  %28 = load i32, ptr %13, align 4
  %29 = load ptr, ptr %11, align 8
  %30 = getelementptr inbounds %struct.XDrawHandlerData, ptr %29, i32 0, i32 5
  %31 = load i32, ptr %30, align 4
  %32 = icmp sge i32 %28, %31
  br i1 %32, label %33, label %74

33:                                               ; preds = %21
  %34 = load ptr, ptr %11, align 8
  %35 = getelementptr inbounds %struct.XDrawHandlerData, ptr %34, i32 0, i32 5
  %36 = load i32, ptr %35, align 4
  %37 = mul nsw i32 %36, 2
  store i32 %37, ptr %14, align 4
  %38 = load ptr, ptr %11, align 8
  %39 = getelementptr inbounds %struct.XDrawHandlerData, ptr %38, i32 0, i32 2
  %40 = load ptr, ptr %39, align 8
  %41 = load ptr, ptr %11, align 8
  %42 = getelementptr inbounds %struct.XDrawHandlerData, ptr %41, i32 0, i32 3
  %43 = getelementptr inbounds [256 x %struct.XPoint], ptr %42, i64 0, i64 0
  %44 = icmp eq ptr %40, %43
  br i1 %44, label %45, label %59

45:                                               ; preds = %33
  %46 = load i32, ptr %14, align 4
  %47 = sext i32 %46 to i64
  %48 = mul i64 %47, 4
  %49 = call noalias ptr @malloc(i64 noundef %48) #9
  %50 = load ptr, ptr %11, align 8
  %51 = getelementptr inbounds %struct.XDrawHandlerData, ptr %50, i32 0, i32 2
  store ptr %49, ptr %51, align 8
  %52 = load ptr, ptr %11, align 8
  %53 = getelementptr inbounds %struct.XDrawHandlerData, ptr %52, i32 0, i32 2
  %54 = load ptr, ptr %53, align 8
  %55 = load ptr, ptr %12, align 8
  %56 = load i32, ptr %13, align 4
  %57 = sext i32 %56 to i64
  %58 = mul i64 %57, 4
  call void @llvm.memcpy.p0.p0.i64(ptr align 2 %54, ptr align 2 %55, i64 %58, i1 false)
  br label %67

59:                                               ; preds = %33
  %60 = load ptr, ptr %12, align 8
  %61 = load i32, ptr %14, align 4
  %62 = sext i32 %61 to i64
  %63 = mul i64 %62, 4
  %64 = call ptr @realloc(ptr noundef %60, i64 noundef %63) #10
  %65 = load ptr, ptr %11, align 8
  %66 = getelementptr inbounds %struct.XDrawHandlerData, ptr %65, i32 0, i32 2
  store ptr %64, ptr %66, align 8
  br label %67

67:                                               ; preds = %59, %45
  %68 = load ptr, ptr %11, align 8
  %69 = getelementptr inbounds %struct.XDrawHandlerData, ptr %68, i32 0, i32 2
  %70 = load ptr, ptr %69, align 8
  store ptr %70, ptr %12, align 8
  %71 = load i32, ptr %14, align 4
  %72 = load ptr, ptr %11, align 8
  %73 = getelementptr inbounds %struct.XDrawHandlerData, ptr %72, i32 0, i32 5
  store i32 %71, ptr %73, align 4
  br label %74

74:                                               ; preds = %67, %21
  %75 = load i32, ptr %13, align 4
  %76 = load ptr, ptr %12, align 8
  %77 = sext i32 %75 to i64
  %78 = getelementptr inbounds %struct.XPoint, ptr %76, i64 %77
  store ptr %78, ptr %12, align 8
  %79 = load i32, ptr %7, align 4
  %80 = trunc i32 %79 to i16
  %81 = load ptr, ptr %12, align 8
  %82 = getelementptr inbounds %struct.XPoint, ptr %81, i32 0, i32 0
  store i16 %80, ptr %82, align 2
  %83 = load i32, ptr %8, align 4
  %84 = trunc i32 %83 to i16
  %85 = load ptr, ptr %12, align 8
  %86 = getelementptr inbounds %struct.XPoint, ptr %85, i32 0, i32 1
  store i16 %84, ptr %86, align 2
  %87 = load i32, ptr %13, align 4
  %88 = add nsw i32 %87, 1
  %89 = load ptr, ptr %11, align 8
  %90 = getelementptr inbounds %struct.XDrawHandlerData, ptr %89, i32 0, i32 4
  store i32 %88, ptr %90, align 8
  br label %91

91:                                               ; preds = %74
  br label %92

92:                                               ; preds = %91
  %93 = load ptr, ptr %11, align 8
  %94 = getelementptr inbounds %struct.XDrawHandlerData, ptr %93, i32 0, i32 2
  %95 = load ptr, ptr %94, align 8
  store ptr %95, ptr %15, align 8
  %96 = load ptr, ptr %11, align 8
  %97 = getelementptr inbounds %struct.XDrawHandlerData, ptr %96, i32 0, i32 4
  %98 = load i32, ptr %97, align 8
  store i32 %98, ptr %16, align 4
  %99 = load i32, ptr %16, align 4
  %100 = load ptr, ptr %11, align 8
  %101 = getelementptr inbounds %struct.XDrawHandlerData, ptr %100, i32 0, i32 5
  %102 = load i32, ptr %101, align 4
  %103 = icmp sge i32 %99, %102
  br i1 %103, label %104, label %145

104:                                              ; preds = %92
  %105 = load ptr, ptr %11, align 8
  %106 = getelementptr inbounds %struct.XDrawHandlerData, ptr %105, i32 0, i32 5
  %107 = load i32, ptr %106, align 4
  %108 = mul nsw i32 %107, 2
  store i32 %108, ptr %17, align 4
  %109 = load ptr, ptr %11, align 8
  %110 = getelementptr inbounds %struct.XDrawHandlerData, ptr %109, i32 0, i32 2
  %111 = load ptr, ptr %110, align 8
  %112 = load ptr, ptr %11, align 8
  %113 = getelementptr inbounds %struct.XDrawHandlerData, ptr %112, i32 0, i32 3
  %114 = getelementptr inbounds [256 x %struct.XPoint], ptr %113, i64 0, i64 0
  %115 = icmp eq ptr %111, %114
  br i1 %115, label %116, label %130

116:                                              ; preds = %104
  %117 = load i32, ptr %17, align 4
  %118 = sext i32 %117 to i64
  %119 = mul i64 %118, 4
  %120 = call noalias ptr @malloc(i64 noundef %119) #9
  %121 = load ptr, ptr %11, align 8
  %122 = getelementptr inbounds %struct.XDrawHandlerData, ptr %121, i32 0, i32 2
  store ptr %120, ptr %122, align 8
  %123 = load ptr, ptr %11, align 8
  %124 = getelementptr inbounds %struct.XDrawHandlerData, ptr %123, i32 0, i32 2
  %125 = load ptr, ptr %124, align 8
  %126 = load ptr, ptr %15, align 8
  %127 = load i32, ptr %16, align 4
  %128 = sext i32 %127 to i64
  %129 = mul i64 %128, 4
  call void @llvm.memcpy.p0.p0.i64(ptr align 2 %125, ptr align 2 %126, i64 %129, i1 false)
  br label %138

130:                                              ; preds = %104
  %131 = load ptr, ptr %15, align 8
  %132 = load i32, ptr %17, align 4
  %133 = sext i32 %132 to i64
  %134 = mul i64 %133, 4
  %135 = call ptr @realloc(ptr noundef %131, i64 noundef %134) #10
  %136 = load ptr, ptr %11, align 8
  %137 = getelementptr inbounds %struct.XDrawHandlerData, ptr %136, i32 0, i32 2
  store ptr %135, ptr %137, align 8
  br label %138

138:                                              ; preds = %130, %116
  %139 = load ptr, ptr %11, align 8
  %140 = getelementptr inbounds %struct.XDrawHandlerData, ptr %139, i32 0, i32 2
  %141 = load ptr, ptr %140, align 8
  store ptr %141, ptr %15, align 8
  %142 = load i32, ptr %17, align 4
  %143 = load ptr, ptr %11, align 8
  %144 = getelementptr inbounds %struct.XDrawHandlerData, ptr %143, i32 0, i32 5
  store i32 %142, ptr %144, align 4
  br label %145

145:                                              ; preds = %138, %92
  %146 = load i32, ptr %16, align 4
  %147 = load ptr, ptr %15, align 8
  %148 = sext i32 %146 to i64
  %149 = getelementptr inbounds %struct.XPoint, ptr %147, i64 %148
  store ptr %149, ptr %15, align 8
  %150 = load i32, ptr %9, align 4
  %151 = trunc i32 %150 to i16
  %152 = load ptr, ptr %15, align 8
  %153 = getelementptr inbounds %struct.XPoint, ptr %152, i32 0, i32 0
  store i16 %151, ptr %153, align 2
  %154 = load i32, ptr %10, align 4
  %155 = trunc i32 %154 to i16
  %156 = load ptr, ptr %15, align 8
  %157 = getelementptr inbounds %struct.XPoint, ptr %156, i32 0, i32 1
  store i16 %155, ptr %157, align 2
  %158 = load i32, ptr %16, align 4
  %159 = add nsw i32 %158, 1
  %160 = load ptr, ptr %11, align 8
  %161 = getelementptr inbounds %struct.XDrawHandlerData, ptr %160, i32 0, i32 4
  store i32 %159, ptr %161, align 8
  br label %162

162:                                              ; preds = %145
  ret void
}