; Function Attrs: mustprogress nounwind willreturn uwtable
define internal void @storeLine(ptr nocapture noundef readonly %0, i32 noundef %1, i32 noundef %2, i32 noundef %3, i32 noundef %4) #4 {
  %6 = getelementptr inbounds i8, ptr %0, i64 56
  %7 = load ptr, ptr %6, align 8
  %8 = getelementptr inbounds i8, ptr %7, i64 16
  %9 = load ptr, ptr %8, align 8
  %10 = getelementptr inbounds i8, ptr %7, i64 1048
  %11 = load i32, ptr %10, align 8
  %12 = getelementptr inbounds i8, ptr %7, i64 1052
  %13 = load i32, ptr %12, align 4
  %.not = icmp slt i32 %11, %13
  br i1 %.not, label %28, label %14

14:                                               ; preds = %5
  %15 = shl nsw i32 %13, 1
  %16 = getelementptr inbounds i8, ptr %7, i64 24
  %17 = icmp eq ptr %9, %16
  %18 = sext i32 %15 to i64
  %19 = shl nsw i64 %18, 2
  br i1 %17, label %20, label %24

20:                                               ; preds = %14
  %21 = tail call noalias ptr @malloc(i64 noundef %19) #11
  store ptr %21, ptr %8, align 8
  %22 = sext i32 %11 to i64
  %23 = shl nsw i64 %22, 2
  tail call void @llvm.memcpy.p0.p0.i64(ptr align 2 %21, ptr align 2 %9, i64 %23, i1 false)
  br label %26

24:                                               ; preds = %14
  %25 = tail call ptr @realloc(ptr noundef %9, i64 noundef %19) #12
  store ptr %25, ptr %8, align 8
  br label %26

26:                                               ; preds = %24, %20
  %27 = phi ptr [ %25, %24 ], [ %21, %20 ]
  store i32 %15, ptr %12, align 4
  br label %28

28:                                               ; preds = %26, %5
  %.0 = phi ptr [ %27, %26 ], [ %9, %5 ]
  %29 = sext i32 %11 to i64
  %30 = getelementptr inbounds %struct.XPoint, ptr %.0, i64 %29
  %31 = trunc i32 %1 to i16
  store i16 %31, ptr %30, align 2
  %32 = trunc i32 %2 to i16
  %33 = getelementptr inbounds i8, ptr %30, i64 2
  store i16 %32, ptr %33, align 2
  %34 = add nsw i32 %11, 1
  store i32 %34, ptr %10, align 8
  %35 = load ptr, ptr %8, align 8
  %36 = load i32, ptr %12, align 4
  %.not60 = icmp slt i32 %34, %36
  br i1 %.not60, label %51, label %37

37:                                               ; preds = %28
  %38 = shl nsw i32 %36, 1
  %39 = getelementptr inbounds i8, ptr %7, i64 24
  %40 = icmp eq ptr %35, %39
  %41 = sext i32 %38 to i64
  %42 = shl nsw i64 %41, 2
  br i1 %40, label %43, label %47

43:                                               ; preds = %37
  %44 = tail call noalias ptr @malloc(i64 noundef %42) #11
  store ptr %44, ptr %8, align 8
  %45 = sext i32 %34 to i64
  %46 = shl nsw i64 %45, 2
  tail call void @llvm.memcpy.p0.p0.i64(ptr align 2 %44, ptr align 2 %35, i64 %46, i1 false)
  br label %49

47:                                               ; preds = %37
  %48 = tail call ptr @realloc(ptr noundef %35, i64 noundef %42) #12
  store ptr %48, ptr %8, align 8
  br label %49

49:                                               ; preds = %47, %43
  %50 = phi ptr [ %48, %47 ], [ %44, %43 ]
  store i32 %38, ptr %12, align 4
  br label %51

51:                                               ; preds = %49, %28
  %.052 = phi ptr [ %50, %49 ], [ %35, %28 ]
  %52 = sext i32 %34 to i64
  %53 = getelementptr inbounds %struct.XPoint, ptr %.052, i64 %52
  %54 = trunc i32 %3 to i16
  store i16 %54, ptr %53, align 2
  %55 = trunc i32 %4 to i16
  %56 = getelementptr inbounds i8, ptr %53, i64 2
  store i16 %55, ptr %56, align 2
  %57 = add nsw i32 %11, 2
  store i32 %57, ptr %10, align 8
  ret void
}